target datalayout = "e-m:e-p270:32:32-p271:32:32-p272:64:64-i64:64-i128:128-f80:128-n8:16:32:64-S128"
target triple = "x86_64-pc-linux-gnu"

%struct.MpegEncContext = type { ptr, i32, i32, i32, [12 x i32], i32, %struct.ScanTable, %struct.ScanTable, [64 x i8], [64 x i8], ptr, ptr, i32, i32, i32, i32, i32, i32, i32, i32, i32, i32, i32, i32, i32, i32, i32, i32, i32, i32, i32, i32, i64, i64, ptr, %struct.BufferPoolContext, i32, i32, %union.anon, i32, %struct.MPVWorkPicture, %struct.MPVWorkPicture, %struct.MPVWorkPicture, i32, [3 x i32], ptr, [3 x ptr], ptr, ptr, ptr, ptr, ptr, ptr, [3 x ptr], i32, ptr, ptr, ptr, ptr, %struct.ScratchpadContext, i32, i32, i32, i32, i32, i32, %struct.BlockDSPContext, %struct.H264ChromaContext, %struct.HpelDSPContext, %struct.IDCTDSPContext, %struct.QpelDSPContext, %struct.VideoDSPContext, %struct.H263DSPContext, ptr, [2 x [2 x ptr]], i32, i32, [2 x [4 x [2 x i32]]], [2 x [2 x i32]], [2 x [2 x [2 x i32]]], [2 x [64 x i16]], i32, i32, i32, i32, i32, [6 x i32], [6 x i32], [3 x ptr], ptr, [64 x i16], [64 x i16], [64 x i16], [64 x i16], i32, i32, %struct.GetBitContext, i32, i32, i32, i32, i32, i32, i32, i32, i32, i32, i32, i32, i32, i32, i32, i64, i64, i16, i16, i16, i16, i32, i32, i32, i32, i32, i32, i32, i32, i32, [3 x i32], i32, i32, i32, i32, i32, i32, %struct.GetBitContext, i32, [2 x [2 x i32]], i32, i32, i32, i32, i32, i32, i32, i32, i32, i32, i32, i32, i32, i32, [2 x i32], i32, i32, ptr, ptr, ptr, ptr, ptr, i32, i32, %struct.ERContext }
%struct.ScanTable = type { ptr, [64 x i8], [64 x i8] }
%struct.BufferPoolContext = type { ptr, ptr, ptr, ptr, ptr, i32, i32, i32 }
%union.anon = type { [32 x ptr] }
%struct.MPVWorkPicture = type { [3 x ptr], [3 x i64], ptr, ptr, [2 x ptr], ptr, ptr, [2 x ptr], i32 }
%struct.ScratchpadContext = type { ptr, ptr, %union.anon.0, i32 }
%union.anon.0 = type { ptr }
%struct.BlockDSPContext = type { ptr, ptr, [2 x ptr] }
%struct.H264ChromaContext = type { [4 x ptr], [4 x ptr] }
%struct.HpelDSPContext = type { [4 x [4 x ptr]], [4 x [4 x ptr]], [4 x [4 x ptr]], [4 x ptr] }
%struct.IDCTDSPContext = type { ptr, ptr, ptr, ptr, ptr, ptr, [64 x i8], i32, i32 }
%struct.QpelDSPContext = type { [2 x [16 x ptr]], [2 x [16 x ptr]], [2 x [16 x ptr]] }
%struct.VideoDSPContext = type { ptr, ptr }
%struct.H263DSPContext = type { ptr, ptr }
%struct.GetBitContext = type { ptr, ptr, i32, i32, i32 }
%struct.ERContext = type { ptr, ptr, i32, ptr, i32, i32, i32, i64, i64, i32, i32, ptr, ptr, [3 x ptr], ptr, ptr, [2 x [4 x [2 x i32]]], %struct.ERPicture, %struct.ERPicture, %struct.ERPicture, [2 x ptr], [2 x ptr], i16, i16, i32, i32, ptr, ptr }
%struct.ERPicture = type { ptr, ptr, ptr, [2 x ptr], [2 x ptr], ptr, i32 }

@h263_decode_dquant.quant_tab = internal constant [4 x i8] c"\FF\FE\01\02", align 1
@ff_modified_quant_tab = external constant [2 x [32 x i8]], align 16

; Function Attrs: alwaysinline nounwind willreturn memory(none) uwtable
define internal i32 @av_bswap32(i32 noundef %0) #9 {
  %2 = alloca i32, align 4
  store i32 %0, ptr %2, align 4, !tbaa !67
  %3 = load i32, ptr %2, align 4, !tbaa !67
  %4 = shl i32 %3, 8
  %5 = and i32 %4, 65280
  %6 = load i32, ptr %2, align 4, !tbaa !67
  %7 = lshr i32 %6, 8
  %8 = and i32 %7, 255
  %9 = or i32 %5, %8
  %10 = shl i32 %9, 16
  %11 = load i32, ptr %2, align 4, !tbaa !67
  %12 = lshr i32 %11, 16
  %13 = shl i32 %12, 8
  %14 = and i32 %13, 65280
  %15 = load i32, ptr %2, align 4, !tbaa !67
  %16 = lshr i32 %15, 16
  %17 = lshr i32 %16, 8
  %18 = and i32 %17, 255
  %19 = or i32 %14, %18
  %20 = or i32 %10, %19
  ret i32 %20
}

; Function Attrs: inlinehint nounwind uwtable
define internal i32 @get_bits(ptr noundef %0, i32 noundef %1) #4 {
  %3 = alloca ptr, align 8
  %4 = alloca i32, align 4
  %5 = alloca i32, align 4
  %6 = alloca i32, align 4
  %7 = alloca i32, align 4
  store ptr %0, ptr %3, align 8, !tbaa !79
  store i32 %1, ptr %4, align 4, !tbaa !67
  call void @llvm.lifetime.start.p0(i64 4, ptr %5) #10
  call void @llvm.lifetime.start.p0(i64 4, ptr %6) #10
  %8 = load ptr, ptr %3, align 8, !tbaa !79
  %9 = getelementptr inbounds nuw %struct.GetBitContext, ptr %8, i32 0, i32 2
  %10 = load i32, ptr %9, align 8, !tbaa !81
  store i32 %10, ptr %6, align 4, !tbaa !67
  call void @llvm.lifetime.start.p0(i64 4, ptr %7) #10
  %11 = load ptr, ptr %3, align 8, !tbaa !79
  %12 = getelementptr inbounds nuw %struct.GetBitContext, ptr %11, i32 0, i32 0
  %13 = load ptr, ptr %12, align 8, !tbaa !82
  %14 = load i32, ptr %6, align 4, !tbaa !67
  %15 = lshr i32 %14, 3
  %16 = zext i32 %15 to i64
  %17 = getelementptr inbounds nuw i8, ptr %13, i64 %16
  %18 = load i32, ptr %17, align 1, !tbaa !75
  %19 = call i32 @av_bswap32(i32 noundef %18) #11
  %20 = load i32, ptr %6, align 4, !tbaa !67
  %21 = and i32 %20, 7
  %22 = shl i32 %19, %21
  %23 = lshr i32 %22, 0
  store i32 %23, ptr %7, align 4, !tbaa !67
  %24 = load i32, ptr %7, align 4, !tbaa !67
  %25 = load i32, ptr %4, align 4, !tbaa !67
  %26 = sub nsw i32 32, %25
  %27 = lshr i32 %24, %26
  store i32 %27, ptr %5, align 4, !tbaa !67
  %28 = load i32, ptr %4, align 4, !tbaa !67
  %29 = load i32, ptr %6, align 4, !tbaa !67
  %30 = add i32 %29, %28
  store i32 %30, ptr %6, align 4, !tbaa !67
  %31 = load i32, ptr %6, align 4, !tbaa !67
  %32 = load ptr, ptr %3, align 8, !tbaa !79
  %33 = getelementptr inbounds nuw %struct.GetBitContext, ptr %32, i32 0, i32 2
  store i32 %31, ptr %33, align 8, !tbaa !81
  %34 = load i32, ptr %5, align 4, !tbaa !67
  call void @llvm.lifetime.end.p0(i64 4, ptr %7) #10
  call void @llvm.lifetime.end.p0(i64 4, ptr %6) #10
  call void @llvm.lifetime.end.p0(i64 4, ptr %5) #10
  ret i32 %34
}

; Function Attrs: inlinehint nounwind uwtable
define internal i32 @get_bits1(ptr noundef %0) #4 {
  %2 = alloca ptr, align 8
  %3 = alloca i32, align 4
  %4 = alloca i8, align 1
  store ptr %0, ptr %2, align 8, !tbaa !79
  call void @llvm.lifetime.start.p0(i64 4, ptr %3) #10
  %5 = load ptr, ptr %2, align 8, !tbaa !79
  %6 = getelementptr inbounds nuw %struct.GetBitContext, ptr %5, i32 0, i32 2
  %7 = load i32, ptr %6, align 8, !tbaa !81
  store i32 %7, ptr %3, align 4, !tbaa !67
  call void @llvm.lifetime.start.p0(i64 1, ptr %4) #10
  %8 = load ptr, ptr %2, align 8, !tbaa !79
  %9 = getelementptr inbounds nuw %struct.GetBitContext, ptr %8, i32 0, i32 0
  %10 = load ptr, ptr %9, align 8, !tbaa !82
  %11 = load i32, ptr %3, align 4, !tbaa !67
  %12 = lshr i32 %11, 3
  %13 = zext i32 %12 to i64
  %14 = getelementptr inbounds nuw i8, ptr %10, i64 %13
  %15 = load i8, ptr %14, align 1, !tbaa !75
  store i8 %15, ptr %4, align 1, !tbaa !75
  %16 = load i32, ptr %3, align 4, !tbaa !67
  %17 = and i32 %16, 7
  %18 = load i8, ptr %4, align 1, !tbaa !75
  %19 = zext i8 %18 to i32
  %20 = shl i32 %19, %17
  %21 = trunc i32 %20 to i8
  store i8 %21, ptr %4, align 1, !tbaa !75
  %22 = load i8, ptr %4, align 1, !tbaa !75
  %23 = zext i8 %22 to i32
  %24 = ashr i32 %23, 7
  %25 = trunc i32 %24 to i8
  store i8 %25, ptr %4, align 1, !tbaa !75
  %26 = load i32, ptr %3, align 4, !tbaa !67
  %27 = add i32 %26, 1
  store i32 %27, ptr %3, align 4, !tbaa !67
  %28 = load i32, ptr %3, align 4, !tbaa !67
  %29 = load ptr, ptr %2, align 8, !tbaa !79
  %30 = getelementptr inbounds nuw %struct.GetBitContext, ptr %29, i32 0, i32 2
  store i32 %28, ptr %30, align 8, !tbaa !81
  %31 = load i8, ptr %4, align 1, !tbaa !75
  %32 = zext i8 %31 to i32
  call void @llvm.lifetime.end.p0(i64 1, ptr %4) #10
  call void @llvm.lifetime.end.p0(i64 4, ptr %3) #10
  ret i32 %32
}

; Function Attrs: nounwind uwtable
define internal void @h263_decode_dquant(ptr noundef %0) #0 {
  %2 = alloca ptr, align 8
  store ptr %0, ptr %2, align 8, !tbaa !4
  %3 = load ptr, ptr %2, align 8, !tbaa !4
  %4 = getelementptr inbounds nuw %struct.MpegEncContext, ptr %3, i32 0, i32 105
  %5 = load i32, ptr %4, align 8, !tbaa !62
  %6 = icmp ne i32 %5, 0
  br i1 %6, label %7, label %34

7:                                                ; preds = %1
  %8 = load ptr, ptr %2, align 8, !tbaa !4
  %9 = getelementptr inbounds nuw %struct.MpegEncContext, ptr %8, i32 0, i32 134
  %10 = call i32 @get_bits1(ptr noundef %9)
  %11 = icmp ne i32 %10, 0
  br i1 %11, label %12, label %27

12:                                               ; preds = %7
  %13 = load ptr, ptr %2, align 8, !tbaa !4
  %14 = getelementptr inbounds nuw %struct.MpegEncContext, ptr %13, i32 0, i32 134
  %15 = call i32 @get_bits1(ptr noundef %14)
  %16 = zext i32 %15 to i64
  %17 = getelementptr inbounds nuw [2 x [32 x i8]], ptr @ff_modified_quant_tab, i64 0, i64 %16
  %18 = load ptr, ptr %2, align 8, !tbaa !4
  %19 = getelementptr inbounds nuw %struct.MpegEncContext, ptr %18, i32 0, i32 60
  %20 = load i32, ptr %19, align 8, !tbaa !52
  %21 = sext i32 %20 to i64
  %22 = getelementptr inbounds [32 x i8], ptr %17, i64 0, i64 %21
  %23 = load i8, ptr %22, align 1, !tbaa !75
  %24 = zext i8 %23 to i32
  %25 = load ptr, ptr %2, align 8, !tbaa !4
  %26 = getelementptr inbounds nuw %struct.MpegEncContext, ptr %25, i32 0, i32 60
  store i32 %24, ptr %26, align 8, !tbaa !52
  br label %33

27:                                               ; preds = %7
  %28 = load ptr, ptr %2, align 8, !tbaa !4
  %29 = getelementptr inbounds nuw %struct.MpegEncContext, ptr %28, i32 0, i32 134
  %30 = call i32 @get_bits(ptr noundef %29, i32 noundef 5)
  %31 = load ptr, ptr %2, align 8, !tbaa !4
  %32 = getelementptr inbounds nuw %struct.MpegEncContext, ptr %31, i32 0, i32 60
  store i32 %30, ptr %32, align 8, !tbaa !52
  br label %33

33:                                               ; preds = %27, %12
  br label %46

34:                                               ; preds = %1
  %35 = load ptr, ptr %2, align 8, !tbaa !4
  %36 = getelementptr inbounds nuw %struct.MpegEncContext, ptr %35, i32 0, i32 134
  %37 = call i32 @get_bits(ptr noundef %36, i32 noundef 2)
  %38 = zext i32 %37 to i64
  %39 = getelementptr inbounds nuw [4 x i8], ptr @h263_decode_dquant.quant_tab, i64 0, i64 %38
  %40 = load i8, ptr %39, align 1, !tbaa !75
  %41 = sext i8 %40 to i32
  %42 = load ptr, ptr %2, align 8, !tbaa !4
  %43 = getelementptr inbounds nuw %struct.MpegEncContext, ptr %42, i32 0, i32 60
  %44 = load i32, ptr %43, align 8, !tbaa !52
  %45 = add nsw i32 %44, %41
  store i32 %45, ptr %43, align 8, !tbaa !52
  br label %46

46:                                               ; preds = %34, %33
  %47 = load ptr, ptr %2, align 8, !tbaa !4
  %48 = load ptr, ptr %2, align 8, !tbaa !4
  %49 = getelementptr inbounds nuw %struct.MpegEncContext, ptr %48, i32 0, i32 60
  %50 = load i32, ptr %49, align 8, !tbaa !52
  call void @ff_set_qscale(ptr noundef %47, i32 noundef %50)
  ret void
}