; Function Attrs: nounwind uwtable
define internal fastcc void @h263_decode_dquant(ptr noundef %0) unnamed_addr #0 {
  %2 = getelementptr inbounds nuw i8, ptr %0, i64 4032
  %3 = load i32, ptr %2, align 8, !tbaa !60
  %.not = icmp eq i32 %3, 0
  %4 = getelementptr inbounds nuw i8, ptr %0, i64 4160
  %5 = getelementptr inbounds nuw i8, ptr %0, i64 4176
  %6 = load i32, ptr %5, align 8, !tbaa !73
  %7 = load ptr, ptr %4, align 8, !tbaa !74
  %8 = lshr i32 %6, 3
  %9 = zext nneg i32 %8 to i64
  %10 = getelementptr inbounds nuw i8, ptr %7, i64 %9
  br i1 %.not, label %44, label %11

11:                                               ; preds = %1
  %12 = load i8, ptr %10, align 1, !tbaa !72
  %13 = and i32 %6, 7
  %14 = zext i8 %12 to i32
  %15 = add i32 %6, 1
  store i32 %15, ptr %5, align 8, !tbaa !73
  %16 = lshr exact i32 128, %13
  %17 = and i32 %16, %14
  %.not11 = icmp eq i32 %17, 0
  %18 = lshr i32 %15, 3
  %19 = zext nneg i32 %18 to i64
  %20 = getelementptr inbounds nuw i8, ptr %7, i64 %19
  br i1 %.not11, label %36, label %21

21:                                               ; preds = %11
  %22 = load i8, ptr %20, align 1, !tbaa !72
  %23 = and i32 %15, 7
  %24 = zext i8 %22 to i32
  %25 = shl nuw nsw i32 %24, %23
  %26 = lshr i32 %25, 7
  %27 = add i32 %6, 2
  store i32 %27, ptr %5, align 8, !tbaa !73
  %28 = and i32 %26, 1
  %29 = zext nneg i32 %28 to i64
  %30 = getelementptr inbounds nuw i8, ptr %0, i64 1472
  %31 = load i32, ptr %30, align 8, !tbaa !50
  %32 = sext i32 %31 to i64
  %33 = getelementptr inbounds [2 x [32 x i8]], ptr @ff_modified_quant_tab, i64 0, i64 %29, i64 %32
  %34 = load i8, ptr %33, align 1, !tbaa !72
  %35 = zext i8 %34 to i32
  store i32 %35, ptr %30, align 8, !tbaa !50
  br label %58

36:                                               ; preds = %11
  %37 = load i32, ptr %20, align 1, !tbaa !72
  %38 = tail call i32 @llvm.bswap.i32(i32 %37)
  %39 = and i32 %15, 7
  %40 = shl i32 %38, %39
  %41 = lshr i32 %40, 27
  %42 = add i32 %6, 6
  store i32 %42, ptr %5, align 8, !tbaa !73
  %43 = getelementptr inbounds nuw i8, ptr %0, i64 1472
  store i32 %41, ptr %43, align 8, !tbaa !50
  br label %58

44:                                               ; preds = %1
  %45 = load i32, ptr %10, align 1, !tbaa !72
  %46 = tail call i32 @llvm.bswap.i32(i32 %45)
  %47 = and i32 %6, 7
  %48 = shl i32 %46, %47
  %49 = lshr i32 %48, 30
  %50 = add i32 %6, 2
  store i32 %50, ptr %5, align 8, !tbaa !73
  %51 = zext nneg i32 %49 to i64
  %52 = getelementptr inbounds nuw [4 x i8], ptr @h263_decode_dquant.quant_tab, i64 0, i64 %51
  %53 = load i8, ptr %52, align 1, !tbaa !72
  %54 = sext i8 %53 to i32
  %55 = getelementptr inbounds nuw i8, ptr %0, i64 1472
  %56 = load i32, ptr %55, align 8, !tbaa !50
  %57 = add nsw i32 %56, %54
  store i32 %57, ptr %55, align 8, !tbaa !50
  br label %58

58:                                               ; preds = %21, %36, %44
  %59 = phi i32 [ %35, %21 ], [ %41, %36 ], [ %57, %44 ]
  tail call void @ff_set_qscale(ptr noundef nonnull %0, i32 noundef %59) #12
  ret void
}